target datalayout = "e-m:e-p270:32:32-p271:32:32-p272:64:64-i64:64-i128:128-f80:128-n8:16:32:64-S128"
target triple = "x86_64-pc-linux-gnu"

%class.G1RootProcessor = type { ptr, %class.SubTasksDone, %class.StrongRootsScope, %class.OopStorageSetStrongParState }
%class.SubTasksDone = type <{ ptr, i32, [4 x i8] }>
%class.StrongRootsScope = type { i32 }
%class.OopStorageSetStrongParState = type { %class.OopStorageSetParState }
%class.OopStorageSetParState = type { %struct.ValueObjArray }
%struct.ValueObjArray = type { [5 x ptr], %class.ValueObjBlock }
%class.ValueObjBlock = type { %"class.OopStorage::ParState", %class.ValueObjBlock.7 }
%"class.OopStorage::ParState" = type { %"class.OopStorage::BasicParState" }
%"class.OopStorage::BasicParState" = type { ptr, ptr, i64, i64, i32, i8, i64 }
%class.ValueObjBlock.7 = type { %"class.OopStorage::ParState", %class.ValueObjBlock.8 }
%class.ValueObjBlock.8 = type { %"class.OopStorage::ParState", %class.ValueObjBlock.9 }
%class.ValueObjBlock.9 = type { %"class.OopStorage::ParState", %class.ValueObjBlock.10 }
%class.ValueObjBlock.10 = type <{ %"class.OopStorage::ParState", %class.ValueObjBlock.11, [7 x i8] }>
%class.ValueObjBlock.11 = type { i8 }
%class.TimeInstant = type { %class.CompositeCounterRepresentation }
%class.CompositeCounterRepresentation = type { %class.Representation }
%class.Representation = type { %class.PairRep }
%class.PairRep = type { i64, i64 }
%class.EventGCPhaseParallel = type { %class.JfrEvent.base, i32, i32, ptr }
%class.JfrEvent.base = type <{ i64, i64, i8, i8, i8 }>
%class.G1GCParPhaseTimesTracker = type <{ ptr, %class.TimeInstant, i32, [4 x i8], ptr, i32, [4 x i8], %class.EventGCPhaseParallel, i8, [7 x i8] }>

; Function Attrs: mustprogress nounwind uwtable
define linkonce_odr hidden noundef i32 @_ZNK16StrongRootsScope9n_threadsEv(ptr noundef nonnull align 4 dereferenceable(4) %0) #1 comdat align 2 {
  %2 = alloca ptr, align 8
  store ptr %0, ptr %2, align 8
  %3 = load ptr, ptr %2, align 8
  %4 = getelementptr inbounds %class.StrongRootsScope, ptr %3, i32 0, i32 0
  %5 = load i32, ptr %4, align 4
  ret i32 %5
}

; Function Attrs: mustprogress nounwind uwtable
define hidden noundef i32 @_ZNK15G1RootProcessor9n_workersEv(ptr noundef nonnull align 8 dereferenceable(320) %0) #1 align 2 {
  %2 = alloca ptr, align 8
  store ptr %0, ptr %2, align 8
  %3 = load ptr, ptr %2, align 8
  %4 = getelementptr inbounds %class.G1RootProcessor, ptr %3, i32 0, i32 2
  %5 = call noundef i32 @_ZNK16StrongRootsScope9n_threadsEv(ptr noundef nonnull align 4 dereferenceable(4) %4)
  ret i32 %5
}

; Function Attrs: mustprogress nounwind uwtable
define hidden void @_ZN15G1RootProcessor18process_java_rootsEP14G1RootClosuresP14G1GCPhaseTimesj(ptr noundef nonnull align 8 dereferenceable(320) %0, ptr noundef %1, ptr noundef %2, i32 noundef %3) #1 align 2 {
  %5 = alloca ptr, align 8
  %6 = alloca ptr, align 8
  %7 = alloca ptr, align 8
  %8 = alloca i32, align 4
  %9 = alloca %class.G1GCParPhaseTimesTracker, align 8
  %10 = alloca i8, align 1
  %11 = alloca %class.G1GCParPhaseTimesTracker, align 8
  store ptr %0, ptr %5, align 8
  store ptr %1, ptr %6, align 8
  store ptr %2, ptr %7, align 8
  store i32 %3, ptr %8, align 4
  %12 = load ptr, ptr %5, align 8
  %13 = load ptr, ptr %7, align 8
  %14 = load i32, ptr %8, align 4
  call void @_ZN24G1GCParPhaseTimesTrackerC1EP14G1GCPhaseTimesNS0_11GCParPhasesEjb(ptr noundef nonnull align 8 dereferenceable(89) %9, ptr noundef %13, i32 noundef 4, i32 noundef %14, i1 noundef zeroext false)
  %15 = call noundef i32 @_ZNK15G1RootProcessor9n_workersEv(ptr noundef nonnull align 8 dereferenceable(320) %12)
  %16 = icmp ugt i32 %15, 1
  %17 = zext i1 %16 to i8
  store i8 %17, ptr %10, align 1
  %18 = load i8, ptr %10, align 1
  %19 = trunc i8 %18 to i1
  %20 = load ptr, ptr %6, align 8
  %21 = load ptr, ptr %20, align 8
  %22 = getelementptr inbounds ptr, ptr %21, i64 0
  %23 = load ptr, ptr %22, align 8
  %24 = call noundef ptr %23(ptr noundef nonnull align 8 dereferenceable(8) %20)
  %25 = load ptr, ptr %6, align 8
  %26 = load ptr, ptr %25, align 8
  %27 = getelementptr inbounds ptr, ptr %26, i64 3
  %28 = load ptr, ptr %27, align 8
  %29 = call noundef ptr %28(ptr noundef nonnull align 8 dereferenceable(8) %25)
  call void @_ZN7Threads25possibly_parallel_oops_doEbP10OopClosureP14NMethodClosure(i1 noundef zeroext %19, ptr noundef %24, ptr noundef %29)
  call void @_ZN24G1GCParPhaseTimesTrackerD1Ev(ptr noundef nonnull align 8 dereferenceable(89) %9) #9
  %30 = getelementptr inbounds %class.G1RootProcessor, ptr %12, i32 0, i32 1
  %31 = call noundef zeroext i1 @_ZN12SubTasksDone14try_claim_taskEj(ptr noundef nonnull align 8 dereferenceable(12) %30, i32 noundef 0)
  br i1 %31, label %32, label %45

32:                                               ; preds = %4
  %33 = load ptr, ptr %7, align 8
  %34 = load i32, ptr %8, align 4
  call void @_ZN24G1GCParPhaseTimesTrackerC1EP14G1GCPhaseTimesNS0_11GCParPhasesEjb(ptr noundef nonnull align 8 dereferenceable(89) %11, ptr noundef %33, i32 noundef 5, i32 noundef %34, i1 noundef zeroext false)
  %35 = load ptr, ptr %6, align 8
  %36 = load ptr, ptr %35, align 8
  %37 = getelementptr inbounds ptr, ptr %36, i64 2
  %38 = load ptr, ptr %37, align 8
  %39 = call noundef ptr %38(ptr noundef nonnull align 8 dereferenceable(8) %35)
  %40 = load ptr, ptr %6, align 8
  %41 = load ptr, ptr %40, align 8
  %42 = getelementptr inbounds ptr, ptr %41, i64 1
  %43 = load ptr, ptr %42, align 8
  %44 = call noundef ptr %43(ptr noundef nonnull align 8 dereferenceable(8) %40)
  call void @_ZN20ClassLoaderDataGraph12roots_cld_doEP10CLDClosureS1_(ptr noundef %39, ptr noundef %44)
  call void @_ZN24G1GCParPhaseTimesTrackerD1Ev(ptr noundef nonnull align 8 dereferenceable(89) %11) #9
  br label %45

45:                                               ; preds = %32, %4
  ret void
}