; Function Attrs: mustprogress nounwind uwtable
define hidden void @_ZN15G1RootProcessor18process_java_rootsEP14G1RootClosuresP14G1GCPhaseTimesj(ptr noundef nonnull align 8 dereferenceable(320) %0, ptr noundef %1, ptr noundef %2, i32 noundef %3) local_unnamed_addr #0 align 2 {
  %5 = alloca %class.G1GCParPhaseTimesTracker, align 8
  %6 = alloca %class.G1GCParPhaseTimesTracker, align 8
  call void @_ZN24G1GCParPhaseTimesTrackerC1EP14G1GCPhaseTimesNS0_11GCParPhasesEjb(ptr noundef nonnull align 8 dereferenceable(89) %5, ptr noundef %2, i32 noundef 4, i32 noundef %3, i1 noundef zeroext false) #10
  %7 = getelementptr inbounds i8, ptr %0, i64 24
  %8 = load i32, ptr %7, align 8
  %9 = icmp ugt i32 %8, 1
  %10 = load ptr, ptr %1, align 8
  %11 = load ptr, ptr %10, align 8
  %12 = call noundef ptr %11(ptr noundef nonnull align 8 dereferenceable(8) %1) #10
  %13 = load ptr, ptr %1, align 8
  %14 = getelementptr inbounds i8, ptr %13, i64 24
  %15 = load ptr, ptr %14, align 8
  %16 = call noundef ptr %15(ptr noundef nonnull align 8 dereferenceable(8) %1) #10
  call void @_ZN7Threads25possibly_parallel_oops_doEbP10OopClosureP14NMethodClosure(i1 noundef zeroext %9, ptr noundef %12, ptr noundef %16) #10
  call void @_ZN24G1GCParPhaseTimesTrackerD1Ev(ptr noundef nonnull align 8 dereferenceable(89) %5) #10
  %17 = getelementptr inbounds i8, ptr %0, i64 8
  %18 = call noundef zeroext i1 @_ZN12SubTasksDone14try_claim_taskEj(ptr noundef nonnull align 8 dereferenceable(12) %17, i32 noundef 0) #10
  br i1 %18, label %19, label %28

19:                                               ; preds = %4
  call void @_ZN24G1GCParPhaseTimesTrackerC1EP14G1GCPhaseTimesNS0_11GCParPhasesEjb(ptr noundef nonnull align 8 dereferenceable(89) %6, ptr noundef %2, i32 noundef 5, i32 noundef %3, i1 noundef zeroext false) #10
  %20 = load ptr, ptr %1, align 8
  %21 = getelementptr inbounds i8, ptr %20, i64 16
  %22 = load ptr, ptr %21, align 8
  %23 = call noundef ptr %22(ptr noundef nonnull align 8 dereferenceable(8) %1) #10
  %24 = load ptr, ptr %1, align 8
  %25 = getelementptr inbounds i8, ptr %24, i64 8
  %26 = load ptr, ptr %25, align 8
  %27 = call noundef ptr %26(ptr noundef nonnull align 8 dereferenceable(8) %1) #10
  call void @_ZN20ClassLoaderDataGraph12roots_cld_doEP10CLDClosureS1_(ptr noundef %23, ptr noundef %27) #10
  call void @_ZN24G1GCParPhaseTimesTrackerD1Ev(ptr noundef nonnull align 8 dereferenceable(89) %6) #10
  br label %28

28:                                               ; preds = %19, %4
  ret void
}